(dp0
S'OriginalConfig'
p1
ccopy_reg
_reconstructor
p2
(cWMCore.Configuration
Configuration
p3
c__builtin__
object
p4
Ntp5
Rp6
(dp7
S'Site'
p8
g2
(cWMCore.Configuration
ConfigSection
p9
g4
Ntp10
Rp11
(dp12
S'_internal_skipChecks'
p13
I00
sS'_internal_documentation'
p14
S''
p15
sS'_internal_settings'
p16
c__builtin__
set
p17
((lp18
S'storageSite'
p19
atp20
Rp21
sS'_internal_name'
p22
g8
sS'_internal_docstrings'
p23
(dp24
sS'_internal_children'
p25
g17
((lp26
tp27
Rp28
sg19
S'T3_KR_KISTI'
p29
sS'_internal_parent_ref'
p30
NsbsS'_internal_sections'
p31
(lp32
S'General'
p33
aS'JobType'
p34
aS'Data'
p35
ag8
aS'User'
p36
aS'Debug'
p37
asg36
g2
(g9
g4
Ntp38
Rp39
(dp40
g13
I00
sg14
g15
sg16
g17
((lp41
tp42
Rp43
sg22
g36
sg23
(dp44
sg25
g17
((lp45
tp46
Rp47
sg30
Nsbsg37
g2
(g9
g4
Ntp48
Rp49
(dp50
g13
I00
sg14
g15
sg16
g17
((lp51
tp52
Rp53
sg22
g37
sg23
(dp54
sg25
g17
((lp55
tp56
Rp57
sg30
Nsbsg33
g2
(g9
g4
Ntp58
Rp59
(dp60
S'workArea'
p61
S'crab_ElectronTnP_HNTypeI_UL'
p62
sg13
I00
sg14
g15
sg16
g17
((lp63
g61
aS'transferLogs'
p64
aS'requestName'
p65
atp66
Rp67
sg22
g33
sg23
(dp68
sg25
g17
((lp69
tp70
Rp71
sg65
S'UL2017_Run2017C'
p72
sg30
Nsg64
I00
sbsg35
g2
(g9
g4
Ntp73
Rp74
(dp75
S'inputDataset'
p76
S'/SingleElectron/Run2017C-09Aug2019_UL2017-v1/MINIAOD'
p77
sS'allowNonValidInputDataset'
p78
I01
sg13
I00
sS'splitting'
p79
S'LumiBased'
p80
sS'unitsPerJob'
p81
I25
sg14
g15
sg16
g17
((lp82
g76
ag78
aS'publication'
p83
ag81
ag79
aS'inputDBS'
p84
aS'outLFNDirBase'
p85
aS'lumiMask'
p86
atp87
Rp88
sg22
g35
sg84
S'global'
p89
sg23
(dp90
sg25
g17
((lp91
tp92
Rp93
sg85
S'/store/user/youngwan/ElectronTnP_HNTypeI_UL/UL2017/data/'
p94
sg30
Nsg86
S'https://cms-service-dqmdc.web.cern.ch/CAF/certification/Collisions17/13TeV/Legacy_2017/Cert_294927-306462_13TeV_UL2017_Collisions17_GoldenJSON.txt'
p95
sg83
I00
sbsg34
g2
(g9
g4
Ntp96
Rp97
(dp98
g13
I00
sS'pyCfgParams'
p99
(lp100
S'doEleID=True'
p101
aS'doPhoID=False'
p102
aS'doTrigger=True'
p103
aS'isMC=False'
p104
aS'era=UL2017'
p105
asg14
g15
sg16
g17
((lp106
S'psetName'
p107
aS'pluginName'
p108
ag99
aS'sendExternalFolder'
p109
aS'allowUndistributedCMSSW'
p110
atp111
Rp112
sg22
g34
sg23
(dp113
sg108
S'Analysis'
p114
sg25
g17
((lp115
tp116
Rp117
sg110
I01
sg107
S'../python/TnPTreeProducer_cfg.py'
p118
sg30
Nsg109
I01
sbsbsS'voGroup'
p119
g15
sS'Server'
p120
S'cmsweb.cern.ch'
p121
sS'instance'
p122
S'prod'
p123
sS'RequestName'
p124
V220216_115911:youngwan_crab_UL2017_Run2017C
p125
sS'voRole'
p126
S'NULL'
p127
sS'Port'
p128
g15
s.