(dp0
S'OriginalConfig'
p1
ccopy_reg
_reconstructor
p2
(cWMCore.Configuration
Configuration
p3
c__builtin__
object
p4
Ntp5
Rp6
(dp7
S'Site'
p8
g2
(cWMCore.Configuration
ConfigSection
p9
g4
Ntp10
Rp11
(dp12
S'_internal_skipChecks'
p13
I00
sS'_internal_documentation'
p14
S''
p15
sS'_internal_settings'
p16
c__builtin__
set
p17
((lp18
S'storageSite'
p19
atp20
Rp21
sS'_internal_name'
p22
g8
sS'_internal_docstrings'
p23
(dp24
sS'_internal_children'
p25
g17
((lp26
tp27
Rp28
sg19
S'T3_KR_KISTI'
p29
sS'_internal_parent_ref'
p30
NsbsS'_internal_sections'
p31
(lp32
S'General'
p33
aS'JobType'
p34
aS'Data'
p35
ag8
aS'User'
p36
aS'Debug'
p37
asg36
g2
(g9
g4
Ntp38
Rp39
(dp40
g13
I00
sg14
g15
sg16
g17
((lp41
tp42
Rp43
sg22
g36
sg23
(dp44
sg25
g17
((lp45
tp46
Rp47
sg30
Nsbsg37
g2
(g9
g4
Ntp48
Rp49
(dp50
g13
I00
sg14
g15
sg16
g17
((lp51
tp52
Rp53
sg22
g37
sg23
(dp54
sg25
g17
((lp55
tp56
Rp57
sg30
Nsbsg33
g2
(g9
g4
Ntp58
Rp59
(dp60
S'workArea'
p61
S'crab_ElectronTnP_HNTypeI_UL'
p62
sg13
I00
sg14
g15
sg16
g17
((lp63
g61
aS'transferLogs'
p64
aS'requestName'
p65
atp66
Rp67
sg22
g33
sg23
(dp68
sg25
g17
((lp69
tp70
Rp71
sg65
S'UL2018_DY_LO'
p72
sg30
Nsg64
I00
sbsg35
g2
(g9
g4
Ntp73
Rp74
(dp75
S'inputDataset'
p76
S'/DYJetsToLL_M-50_TuneCP5_13TeV-madgraphMLM-pythia8/RunIISummer19UL18MiniAOD-106X_upgrade2018_realistic_v11_L1v1-v1/MINIAODSIM'
p77
sS'allowNonValidInputDataset'
p78
I01
sg13
I00
sS'splitting'
p79
S'FileBased'
p80
sS'unitsPerJob'
p81
I5
sg14
g15
sg16
g17
((lp82
g76
ag78
aS'publication'
p83
ag81
ag79
aS'inputDBS'
p84
aS'outLFNDirBase'
p85
aS'lumiMask'
p86
atp87
Rp88
sg22
g35
sg84
S'global'
p89
sg23
(dp90
sg25
g17
((lp91
tp92
Rp93
sg85
S'/store/user/youngwan/ElectronTnP_HNTypeI_UL/UL2018/mc/'
p94
sg30
Nsg86
Nsg83
I00
sbsg34
g2
(g9
g4
Ntp95
Rp96
(dp97
g13
I00
sS'pyCfgParams'
p98
(lp99
S'doEleID=True'
p100
aS'doPhoID=False'
p101
aS'doTrigger=True'
p102
aS'isMC=True'
p103
aS'era=UL2018'
p104
asg14
g15
sg16
g17
((lp105
S'psetName'
p106
aS'pluginName'
p107
ag98
aS'sendExternalFolder'
p108
aS'allowUndistributedCMSSW'
p109
atp110
Rp111
sg22
g34
sg23
(dp112
sg107
S'Analysis'
p113
sg25
g17
((lp114
tp115
Rp116
sg109
I01
sg106
S'../python/TnPTreeProducer_cfg.py'
p117
sg30
Nsg108
I01
sbsbsS'voGroup'
p118
g15
sS'Server'
p119
S'cmsweb.cern.ch'
p120
sS'instance'
p121
S'prod'
p122
sS'RequestName'
p123
V220216_120517:youngwan_crab_UL2018_DY_LO
p124
sS'voRole'
p125
S'NULL'
p126
sS'Port'
p127
g15
s.